target datalayout = "e-m:e-p270:32:32-p271:32:32-p272:64:64-i64:64-i128:128-f80:128-n8:16:32:64-S128"
target triple = "x86_64-pc-linux-gnu"

%struct.dclist_head = type { %struct.dlist_head, i32 }
%struct.dlist_head = type { %struct.dlist_node }
%struct.dlist_node = type { ptr, ptr }
%struct.RI_ConstraintInfo = type { i32, i8, i32, i32, i32, %struct.nameData, i32, i32, i8, i8, i32, [32 x i16], i8, i8, i32, [32 x i16], [32 x i16], [32 x i32], [32 x i32], [32 x i32], i32, i32, i32, %struct.dlist_node }
%struct.nameData = type { [64 x i8] }
%struct.dlist_mutable_iter = type { ptr, ptr, ptr }

@ri_constraint_cache_valid_list = internal global %struct.dclist_head zeroinitializer, align 8

; Function Attrs: inlinehint nounwind uwtable
define internal void @dlist_delete(ptr noundef %0) #4 {
  %2 = alloca ptr, align 8
  store ptr %0, ptr %2, align 8
  %3 = load ptr, ptr %2, align 8
  %4 = getelementptr inbounds nuw %struct.dlist_node, ptr %3, i32 0, i32 1
  %5 = load ptr, ptr %4, align 8
  %6 = load ptr, ptr %2, align 8
  %7 = getelementptr inbounds nuw %struct.dlist_node, ptr %6, i32 0, i32 0
  %8 = load ptr, ptr %7, align 8
  %9 = getelementptr inbounds nuw %struct.dlist_node, ptr %8, i32 0, i32 1
  store ptr %5, ptr %9, align 8
  %10 = load ptr, ptr %2, align 8
  %11 = getelementptr inbounds nuw %struct.dlist_node, ptr %10, i32 0, i32 0
  %12 = load ptr, ptr %11, align 8
  %13 = load ptr, ptr %2, align 8
  %14 = getelementptr inbounds nuw %struct.dlist_node, ptr %13, i32 0, i32 1
  %15 = load ptr, ptr %14, align 8
  %16 = getelementptr inbounds nuw %struct.dlist_node, ptr %15, i32 0, i32 0
  store ptr %12, ptr %16, align 8
  ret void
}

; Function Attrs: inlinehint nounwind uwtable
define internal void @dlist_delete_from(ptr noundef %0, ptr noundef %1) #4 {
  %3 = alloca ptr, align 8
  %4 = alloca ptr, align 8
  store ptr %0, ptr %3, align 8
  store ptr %1, ptr %4, align 8
  %5 = load ptr, ptr %4, align 8
  call void @dlist_delete(ptr noundef %5)
  ret void
}

; Function Attrs: inlinehint nounwind uwtable
define internal void @dclist_delete_from(ptr noundef %0, ptr noundef %1) #4 {
  %3 = alloca ptr, align 8
  %4 = alloca ptr, align 8
  store ptr %0, ptr %3, align 8
  store ptr %1, ptr %4, align 8
  %5 = load ptr, ptr %3, align 8
  %6 = getelementptr inbounds nuw %struct.dclist_head, ptr %5, i32 0, i32 0
  %7 = load ptr, ptr %4, align 8
  call void @dlist_delete_from(ptr noundef %6, ptr noundef %7)
  %8 = load ptr, ptr %3, align 8
  %9 = getelementptr inbounds nuw %struct.dclist_head, ptr %8, i32 0, i32 1
  %10 = load i32, ptr %9, align 8
  %11 = add i32 %10, -1
  store i32 %11, ptr %9, align 8
  ret void
}

; Function Attrs: inlinehint nounwind uwtable
define internal i32 @dclist_count(ptr noundef %0) #4 {
  %2 = alloca ptr, align 8
  store ptr %0, ptr %2, align 8
  %3 = load ptr, ptr %2, align 8
  %4 = getelementptr inbounds nuw %struct.dclist_head, ptr %3, i32 0, i32 1
  %5 = load i32, ptr %4, align 8
  ret i32 %5
}

; Function Attrs: nounwind uwtable
define internal void @InvalidateConstraintCacheCallBack(i64 noundef %0, i32 noundef %1, i32 noundef %2) #0 {
  %4 = alloca i64, align 8
  %5 = alloca i32, align 4
  %6 = alloca i32, align 4
  %7 = alloca %struct.dlist_mutable_iter, align 8
  %8 = alloca i32, align 4
  %9 = alloca i32, align 4
  %10 = alloca ptr, align 8
  %11 = alloca i32, align 4
  %12 = alloca i32, align 4
  store i64 %0, ptr %4, align 8
  store i32 %1, ptr %5, align 4
  store i32 %2, ptr %6, align 4
  call void @llvm.lifetime.start.p0(i64 24, ptr %7) #9
  %13 = call i32 @dclist_count(ptr noundef @ri_constraint_cache_valid_list)
  %14 = icmp ugt i32 %13, 1000
  br i1 %14, label %15, label %16

15:                                               ; preds = %3
  store i32 0, ptr %6, align 4
  br label %16

16:                                               ; preds = %15, %3
  br label %17

17:                                               ; preds = %16
  br label %18

18:                                               ; preds = %17
  br label %19

19:                                               ; preds = %18
  store i32 1, ptr %8, align 4
  br label %20

20:                                               ; preds = %19
  br label %21

21:                                               ; preds = %20
  br label %22

22:                                               ; preds = %21
  store i32 1, ptr %9, align 4
  %23 = getelementptr inbounds nuw %struct.dlist_mutable_iter, ptr %7, i32 0, i32 2
  store ptr @ri_constraint_cache_valid_list, ptr %23, align 8
  %24 = getelementptr inbounds nuw %struct.dlist_mutable_iter, ptr %7, i32 0, i32 2
  %25 = load ptr, ptr %24, align 8
  %26 = getelementptr inbounds nuw %struct.dlist_node, ptr %25, i32 0, i32 1
  %27 = load ptr, ptr %26, align 8
  %28 = icmp ne ptr %27, null
  br i1 %28, label %29, label %34

29:                                               ; preds = %22
  %30 = getelementptr inbounds nuw %struct.dlist_mutable_iter, ptr %7, i32 0, i32 2
  %31 = load ptr, ptr %30, align 8
  %32 = getelementptr inbounds nuw %struct.dlist_node, ptr %31, i32 0, i32 1
  %33 = load ptr, ptr %32, align 8
  br label %37

34:                                               ; preds = %22
  %35 = getelementptr inbounds nuw %struct.dlist_mutable_iter, ptr %7, i32 0, i32 2
  %36 = load ptr, ptr %35, align 8
  br label %37

37:                                               ; preds = %34, %29
  %38 = phi ptr [ %33, %29 ], [ %36, %34 ]
  %39 = getelementptr inbounds nuw %struct.dlist_mutable_iter, ptr %7, i32 0, i32 0
  store ptr %38, ptr %39, align 8
  %40 = getelementptr inbounds nuw %struct.dlist_mutable_iter, ptr %7, i32 0, i32 0
  %41 = load ptr, ptr %40, align 8
  %42 = getelementptr inbounds nuw %struct.dlist_node, ptr %41, i32 0, i32 1
  %43 = load ptr, ptr %42, align 8
  %44 = getelementptr inbounds nuw %struct.dlist_mutable_iter, ptr %7, i32 0, i32 1
  store ptr %43, ptr %44, align 8
  br label %45

45:                                               ; preds = %81, %37
  %46 = getelementptr inbounds nuw %struct.dlist_mutable_iter, ptr %7, i32 0, i32 0
  %47 = load ptr, ptr %46, align 8
  %48 = getelementptr inbounds nuw %struct.dlist_mutable_iter, ptr %7, i32 0, i32 2
  %49 = load ptr, ptr %48, align 8
  %50 = icmp ne ptr %47, %49
  br i1 %50, label %51, label %90

51:                                               ; preds = %45
  call void @llvm.lifetime.start.p0(i64 8, ptr %10) #9
  br label %52

52:                                               ; preds = %51
  br label %53

53:                                               ; preds = %52
  br label %54

54:                                               ; preds = %53
  store i32 1, ptr %11, align 4
  br label %55

55:                                               ; preds = %54
  br label %56

56:                                               ; preds = %55
  br label %57

57:                                               ; preds = %56
  store i32 1, ptr %12, align 4
  %58 = getelementptr inbounds nuw %struct.dlist_mutable_iter, ptr %7, i32 0, i32 0
  %59 = load ptr, ptr %58, align 8
  %60 = getelementptr inbounds i8, ptr %59, i64 -696
  store ptr %60, ptr %10, align 8
  %61 = load i32, ptr %6, align 4
  %62 = icmp eq i32 %61, 0
  br i1 %62, label %75, label %63

63:                                               ; preds = %57
  %64 = load ptr, ptr %10, align 8
  %65 = getelementptr inbounds nuw %struct.RI_ConstraintInfo, ptr %64, i32 0, i32 3
  %66 = load i32, ptr %65, align 4
  %67 = load i32, ptr %6, align 4
  %68 = icmp eq i32 %66, %67
  br i1 %68, label %75, label %69

69:                                               ; preds = %63
  %70 = load ptr, ptr %10, align 8
  %71 = getelementptr inbounds nuw %struct.RI_ConstraintInfo, ptr %70, i32 0, i32 4
  %72 = load i32, ptr %71, align 8
  %73 = load i32, ptr %6, align 4
  %74 = icmp eq i32 %72, %73
  br i1 %74, label %75, label %80

75:                                               ; preds = %69, %63, %57
  %76 = load ptr, ptr %10, align 8
  %77 = getelementptr inbounds nuw %struct.RI_ConstraintInfo, ptr %76, i32 0, i32 1
  store i8 0, ptr %77, align 4
  %78 = getelementptr inbounds nuw %struct.dlist_mutable_iter, ptr %7, i32 0, i32 0
  %79 = load ptr, ptr %78, align 8
  call void @dclist_delete_from(ptr noundef @ri_constraint_cache_valid_list, ptr noundef %79)
  br label %80

80:                                               ; preds = %75, %69
  call void @llvm.lifetime.end.p0(i64 8, ptr %10) #9
  br label %81

81:                                               ; preds = %80
  %82 = getelementptr inbounds nuw %struct.dlist_mutable_iter, ptr %7, i32 0, i32 1
  %83 = load ptr, ptr %82, align 8
  %84 = getelementptr inbounds nuw %struct.dlist_mutable_iter, ptr %7, i32 0, i32 0
  store ptr %83, ptr %84, align 8
  %85 = getelementptr inbounds nuw %struct.dlist_mutable_iter, ptr %7, i32 0, i32 0
  %86 = load ptr, ptr %85, align 8
  %87 = getelementptr inbounds nuw %struct.dlist_node, ptr %86, i32 0, i32 1
  %88 = load ptr, ptr %87, align 8
  %89 = getelementptr inbounds nuw %struct.dlist_mutable_iter, ptr %7, i32 0, i32 1
  store ptr %88, ptr %89, align 8
  br label %45, !llvm.loop !29

90:                                               ; preds = %45
  call void @llvm.lifetime.end.p0(i64 24, ptr %7) #9
  ret void
}