; Function Attrs: nofree norecurse nosync nounwind memory(readwrite, inaccessiblemem: none) uwtable
define internal void @InvalidateConstraintCacheCallBack(i64 %0, i32 %1, i32 noundef %2) #8 {
  %4 = load i32, ptr getelementptr inbounds nuw (i8, ptr @ri_constraint_cache_valid_list, i64 16), align 8
  %5 = icmp ugt i32 %4, 1000
  %spec.select = select i1 %5, i32 0, i32 %2
  %6 = load ptr, ptr getelementptr inbounds nuw (i8, ptr @ri_constraint_cache_valid_list, i64 8), align 8
  %.not = icmp eq ptr %6, null
  %.not131720 = icmp eq ptr %6, @ri_constraint_cache_valid_list
  %.not1317 = or i1 %.not, %.not131720
  br i1 %.not1317, label %select.unfold._crit_edge, label %.lr.ph

.lr.ph:                                           ; preds = %3
  %.sroa.9.0.in15 = getelementptr inbounds nuw i8, ptr %6, i64 8
  %.sroa.9.016 = load ptr, ptr %.sroa.9.0.in15, align 8
  %7 = icmp eq i32 %spec.select, 0
  br i1 %7, label %select.unfold.us, label %.lr.ph.split

select.unfold.us:                                 ; preds = %.lr.ph, %select.unfold.us
  %.sroa.9.019.us = phi ptr [ %.sroa.9.0.us, %select.unfold.us ], [ %.sroa.9.016, %.lr.ph ]
  %.sroa.0.018.us = phi ptr [ %.sroa.9.019.us, %select.unfold.us ], [ %6, %.lr.ph ]
  %8 = getelementptr inbounds i8, ptr %.sroa.0.018.us, i64 -692
  store i8 0, ptr %8, align 4
  %9 = load ptr, ptr %.sroa.0.018.us, align 8
  %10 = getelementptr inbounds nuw i8, ptr %9, i64 8
  store ptr %.sroa.9.019.us, ptr %10, align 8
  %11 = load ptr, ptr %.sroa.0.018.us, align 8
  store ptr %11, ptr %.sroa.9.019.us, align 8
  %12 = load i32, ptr getelementptr inbounds nuw (i8, ptr @ri_constraint_cache_valid_list, i64 16), align 8
  %13 = add i32 %12, -1
  store i32 %13, ptr getelementptr inbounds nuw (i8, ptr @ri_constraint_cache_valid_list, i64 16), align 8
  %.sroa.9.0.in.us = getelementptr inbounds nuw i8, ptr %.sroa.9.019.us, i64 8
  %.sroa.9.0.us = load ptr, ptr %.sroa.9.0.in.us, align 8
  %.not13.us = icmp eq ptr %.sroa.9.019.us, @ri_constraint_cache_valid_list
  br i1 %.not13.us, label %select.unfold._crit_edge, label %select.unfold.us, !llvm.loop !30

.lr.ph.split:                                     ; preds = %.lr.ph, %select.unfold
  %.sroa.9.019 = phi ptr [ %.sroa.9.0, %select.unfold ], [ %.sroa.9.016, %.lr.ph ]
  %.sroa.0.018 = phi ptr [ %.sroa.9.019, %select.unfold ], [ %6, %.lr.ph ]
  %14 = getelementptr inbounds i8, ptr %.sroa.0.018, i64 -684
  %15 = load i32, ptr %14, align 4
  %16 = icmp eq i32 %15, %spec.select
  br i1 %16, label %21, label %17

17:                                               ; preds = %.lr.ph.split
  %18 = getelementptr inbounds i8, ptr %.sroa.0.018, i64 -680
  %19 = load i32, ptr %18, align 8
  %20 = icmp eq i32 %19, %spec.select
  br i1 %20, label %21, label %select.unfold

21:                                               ; preds = %17, %.lr.ph.split
  %22 = getelementptr inbounds i8, ptr %.sroa.0.018, i64 -692
  store i8 0, ptr %22, align 4
  %23 = load ptr, ptr %.sroa.0.018, align 8
  %24 = getelementptr inbounds nuw i8, ptr %23, i64 8
  store ptr %.sroa.9.019, ptr %24, align 8
  %25 = load ptr, ptr %.sroa.0.018, align 8
  store ptr %25, ptr %.sroa.9.019, align 8
  %26 = load i32, ptr getelementptr inbounds nuw (i8, ptr @ri_constraint_cache_valid_list, i64 16), align 8
  %27 = add i32 %26, -1
  store i32 %27, ptr getelementptr inbounds nuw (i8, ptr @ri_constraint_cache_valid_list, i64 16), align 8
  br label %select.unfold

select.unfold:                                    ; preds = %21, %17
  %.sroa.9.0.in = getelementptr inbounds nuw i8, ptr %.sroa.9.019, i64 8
  %.sroa.9.0 = load ptr, ptr %.sroa.9.0.in, align 8
  %.not13 = icmp eq ptr %.sroa.9.019, @ri_constraint_cache_valid_list
  br i1 %.not13, label %select.unfold._crit_edge, label %.lr.ph.split, !llvm.loop !30

select.unfold._crit_edge:                         ; preds = %select.unfold, %select.unfold.us, %3
  ret void
}